; Function Attrs: nofree norecurse nosync nounwind memory(read, argmem: readwrite, inaccessiblemem: none) uwtable
define internal void @filter16_scharr(ptr noundef writeonly captures(none) %0, i32 noundef %1, float noundef %2, float noundef %3, ptr readnone captures(none) %4, ptr noundef readonly captures(none) %5, i32 noundef %6, i32 %7, i32 %8, i32 %9, i32 %10) #6 {
  %12 = icmp sgt i32 %1, 0
  br i1 %12, label %.lr.ph, label %._crit_edge

.lr.ph:                                           ; preds = %11
  %13 = load ptr, ptr %5, align 8, !tbaa !46
  %14 = getelementptr inbounds nuw i8, ptr %5, i64 8
  %15 = load ptr, ptr %14, align 8, !tbaa !46
  %16 = getelementptr inbounds nuw i8, ptr %5, i64 16
  %17 = load ptr, ptr %16, align 8, !tbaa !46
  %18 = getelementptr inbounds nuw i8, ptr %5, i64 48
  %19 = load ptr, ptr %18, align 8, !tbaa !46
  %20 = getelementptr inbounds nuw i8, ptr %5, i64 56
  %21 = load ptr, ptr %20, align 8, !tbaa !46
  %22 = getelementptr inbounds nuw i8, ptr %5, i64 64
  %23 = load ptr, ptr %22, align 8, !tbaa !46
  %24 = getelementptr inbounds nuw i8, ptr %5, i64 24
  %25 = load ptr, ptr %24, align 8, !tbaa !46
  %26 = getelementptr inbounds nuw i8, ptr %5, i64 40
  %27 = load ptr, ptr %26, align 8, !tbaa !46
  %wide.trip.count = zext nneg i32 %1 to i64
  br label %28

28:                                               ; preds = %.lr.ph, %28
  %indvars.iv = phi i64 [ 0, %.lr.ph ], [ %indvars.iv.next, %28 ]
  %29 = shl nuw nsw i64 %indvars.iv, 1
  %30 = getelementptr inbounds nuw i8, ptr %13, i64 %29
  %31 = load i16, ptr %30, align 2, !tbaa !82
  %32 = zext i16 %31 to i32
  %33 = mul nsw i32 %32, -47
  %34 = getelementptr inbounds nuw i8, ptr %15, i64 %29
  %35 = load i16, ptr %34, align 2, !tbaa !82
  %36 = zext i16 %35 to i32
  %37 = getelementptr inbounds nuw i8, ptr %17, i64 %29
  %38 = load i16, ptr %37, align 2, !tbaa !82
  %39 = zext i16 %38 to i32
  %40 = getelementptr inbounds nuw i8, ptr %19, i64 %29
  %41 = load i16, ptr %40, align 2, !tbaa !82
  %42 = zext i16 %41 to i32
  %43 = getelementptr inbounds nuw i8, ptr %21, i64 %29
  %44 = load i16, ptr %43, align 2, !tbaa !82
  %45 = zext i16 %44 to i32
  %46 = getelementptr inbounds nuw i8, ptr %23, i64 %29
  %47 = load i16, ptr %46, align 2, !tbaa !82
  %48 = zext i16 %47 to i32
  %49 = mul nuw nsw i32 %48, 47
  %reass.add = sub nsw i32 %42, %39
  %reass.mul = mul nsw i32 %reass.add, 47
  %reass.add39 = sub nsw i32 %45, %36
  %reass.mul40 = mul nsw i32 %reass.add39, 162
  %50 = add nsw i32 %49, %33
  %51 = add nsw i32 %50, %reass.mul
  %52 = add nsw i32 %51, %reass.mul40
  %53 = sitofp i32 %52 to float
  %54 = getelementptr inbounds nuw i8, ptr %25, i64 %29
  %55 = load i16, ptr %54, align 2, !tbaa !82
  %56 = zext i16 %55 to i32
  %57 = getelementptr inbounds nuw i8, ptr %27, i64 %29
  %58 = load i16, ptr %57, align 2, !tbaa !82
  %59 = zext i16 %58 to i32
  %reass.add42 = sub nsw i32 %59, %56
  %reass.mul43 = mul nsw i32 %reass.add42, 162
  %reass.add45 = sub nsw i32 %39, %42
  %reass.mul46 = mul nsw i32 %reass.add45, 47
  %60 = add nsw i32 %50, %reass.mul46
  %61 = add nsw i32 %60, %reass.mul43
  %62 = sitofp i32 %61 to float
  %63 = fmul nsz float %53, 3.906250e-03
  %64 = fmul nsz float %62, 3.906250e-03
  %65 = fmul nsz float %64, %64
  %66 = tail call nsz float @llvm.fmuladd.f32(float %63, float %63, float %65)
  %67 = tail call nsz float @llvm.sqrt.f32(float %66)
  %68 = tail call nsz float @llvm.fmuladd.f32(float %67, float %2, float %3)
  %69 = fptosi float %68 to i32
  %70 = icmp slt i32 %69, 0
  %..i = tail call i32 @llvm.smin.i32(i32 %6, i32 %69)
  %71 = trunc i32 %..i to i16
  %72 = select i1 %70, i16 0, i16 %71
  %73 = getelementptr inbounds nuw i16, ptr %0, i64 %indvars.iv
  store i16 %72, ptr %73, align 2, !tbaa !103
  %indvars.iv.next = add nuw nsw i64 %indvars.iv, 1
  %exitcond.not = icmp eq i64 %indvars.iv.next, %wide.trip.count
  br i1 %exitcond.not, label %._crit_edge, label %28, !llvm.loop !119

._crit_edge:                                      ; preds = %28, %11
  ret void
}